target datalayout = "e-m:e-p270:32:32-p271:32:32-p272:64:64-i64:64-i128:128-f80:128-n8:16:32:64-S128"
target triple = "x86_64-pc-linux-gnu"

%"struct.Luau::CodeGen::X64::RegisterX64" = type { i8 }
%"struct.Luau::CodeGen::X64::OperandX64" = type { i8, %"struct.Luau::CodeGen::X64::RegisterX64", %"struct.Luau::CodeGen::X64::RegisterX64", i8, i32 }
%"struct.Luau::CodeGen::X64::IrLoweringX64" = type { ptr, ptr, ptr, ptr, %"struct.Luau::CodeGen::X64::IrRegAllocX64", %"struct.Luau::CodeGen::IrValueLocationTracking", %"class.std::vector.2", %"class.std::vector.7", %"class.Luau::DenseHashMap", %"struct.Luau::CodeGen::X64::OperandX64", %"struct.Luau::CodeGen::X64::OperandX64" }
%"struct.Luau::CodeGen::X64::IrRegAllocX64" = type { ptr, ptr, ptr, i32, %"struct.std::array", %"struct.std::array.0", %"struct.std::array", %"struct.std::array.0", i8, %"class.std::bitset", i32, i32, %"class.std::vector" }
%"struct.std::array" = type { [16 x i8] }
%"struct.std::array.0" = type { [16 x i32] }
%"class.std::bitset" = type { %"struct.std::_Base_bitset" }
%"struct.std::_Base_bitset" = type { [4 x i64] }
%"class.std::vector" = type { %"struct.std::_Vector_base" }
%"struct.std::_Vector_base" = type { %"struct.std::_Vector_base<Luau::CodeGen::X64::IrSpillX64, std::allocator<Luau::CodeGen::X64::IrSpillX64>>::_Vector_impl" }
%"struct.std::_Vector_base<Luau::CodeGen::X64::IrSpillX64, std::allocator<Luau::CodeGen::X64::IrSpillX64>>::_Vector_impl" = type { %"struct.std::_Vector_base<Luau::CodeGen::X64::IrSpillX64, std::allocator<Luau::CodeGen::X64::IrSpillX64>>::_Vector_impl_data" }
%"struct.std::_Vector_base<Luau::CodeGen::X64::IrSpillX64, std::allocator<Luau::CodeGen::X64::IrSpillX64>>::_Vector_impl_data" = type { ptr, ptr, ptr }
%"struct.Luau::CodeGen::IrValueLocationTracking" = type { ptr, %"struct.std::array.1", i32, ptr, ptr }
%"struct.std::array.1" = type { [256 x i32] }
%"class.std::vector.2" = type { %"struct.std::_Vector_base.3" }
%"struct.std::_Vector_base.3" = type { %"struct.std::_Vector_base<Luau::CodeGen::X64::IrLoweringX64::InterruptHandler, std::allocator<Luau::CodeGen::X64::IrLoweringX64::InterruptHandler>>::_Vector_impl" }
%"struct.std::_Vector_base<Luau::CodeGen::X64::IrLoweringX64::InterruptHandler, std::allocator<Luau::CodeGen::X64::IrLoweringX64::InterruptHandler>>::_Vector_impl" = type { %"struct.std::_Vector_base<Luau::CodeGen::X64::IrLoweringX64::InterruptHandler, std::allocator<Luau::CodeGen::X64::IrLoweringX64::InterruptHandler>>::_Vector_impl_data" }
%"struct.std::_Vector_base<Luau::CodeGen::X64::IrLoweringX64::InterruptHandler, std::allocator<Luau::CodeGen::X64::IrLoweringX64::InterruptHandler>>::_Vector_impl_data" = type { ptr, ptr, ptr }
%"class.std::vector.7" = type { %"struct.std::_Vector_base.8" }
%"struct.std::_Vector_base.8" = type { %"struct.std::_Vector_base<Luau::CodeGen::X64::IrLoweringX64::ExitHandler, std::allocator<Luau::CodeGen::X64::IrLoweringX64::ExitHandler>>::_Vector_impl" }
%"struct.std::_Vector_base<Luau::CodeGen::X64::IrLoweringX64::ExitHandler, std::allocator<Luau::CodeGen::X64::IrLoweringX64::ExitHandler>>::_Vector_impl" = type { %"struct.std::_Vector_base<Luau::CodeGen::X64::IrLoweringX64::ExitHandler, std::allocator<Luau::CodeGen::X64::IrLoweringX64::ExitHandler>>::_Vector_impl_data" }
%"struct.std::_Vector_base<Luau::CodeGen::X64::IrLoweringX64::ExitHandler, std::allocator<Luau::CodeGen::X64::IrLoweringX64::ExitHandler>>::_Vector_impl_data" = type { ptr, ptr, ptr }
%"class.Luau::DenseHashMap" = type { %"class.Luau::detail::DenseHashTable" }
%"class.Luau::detail::DenseHashTable" = type <{ ptr, i64, i64, i32, [4 x i8] }>

@_ZN4Luau7CodeGen3X64L5noregE = internal constant %"struct.Luau::CodeGen::X64::RegisterX64" { i8 -128 }, align 1

; Function Attrs: mustprogress nounwind uwtable
define linkonce_odr dso_local noundef zeroext i1 @_ZNK4Luau7CodeGen3X6411RegisterX64eqES2_(ptr noundef nonnull align 1 dereferenceable(1) %0, i8 %1) #2 comdat align 2 {
  %3 = alloca %"struct.Luau::CodeGen::X64::RegisterX64", align 1
  %4 = alloca ptr, align 8
  %5 = getelementptr inbounds nuw %"struct.Luau::CodeGen::X64::RegisterX64", ptr %3, i32 0, i32 0
  store i8 %1, ptr %5, align 1
  store ptr %0, ptr %4, align 8, !tbaa !185
  %6 = load ptr, ptr %4, align 8
  %7 = load i8, ptr %6, align 1
  %8 = and i8 %7, 7
  %9 = load i8, ptr %3, align 1
  %10 = and i8 %9, 7
  %11 = icmp eq i8 %8, %10
  br i1 %11, label %12, label %20

12:                                               ; preds = %2
  %13 = load i8, ptr %6, align 1
  %14 = lshr i8 %13, 3
  %15 = zext i8 %14 to i32
  %16 = load i8, ptr %3, align 1
  %17 = lshr i8 %16, 3
  %18 = zext i8 %17 to i32
  %19 = icmp eq i32 %15, %18
  br label %20

20:                                               ; preds = %12, %2
  %21 = phi i1 [ false, %2 ], [ %19, %12 ]
  ret i1 %21
}

; Function Attrs: mustprogress uwtable
define dso_local i64 @_ZN4Luau7CodeGen3X6413IrLoweringX6415vectorAndMaskOpEv(ptr noundef nonnull align 8 dereferenceable(1440) %0) #0 align 2 {
  %2 = alloca %"struct.Luau::CodeGen::X64::OperandX64", align 4
  %3 = alloca ptr, align 8
  %4 = alloca %"struct.Luau::CodeGen::X64::RegisterX64", align 1
  %5 = alloca %"struct.Luau::CodeGen::X64::OperandX64", align 4
  store ptr %0, ptr %3, align 8, !tbaa !4
  %6 = load ptr, ptr %3, align 8
  %7 = getelementptr inbounds nuw %"struct.Luau::CodeGen::X64::IrLoweringX64", ptr %6, i32 0, i32 9
  %8 = getelementptr inbounds nuw %"struct.Luau::CodeGen::X64::OperandX64", ptr %7, i32 0, i32 2
  call void @llvm.memcpy.p0.p0.i64(ptr align 1 %4, ptr align 1 @_ZN4Luau7CodeGen3X64L5noregE, i64 1, i1 false), !tbaa.struct !53
  %9 = getelementptr inbounds nuw %"struct.Luau::CodeGen::X64::RegisterX64", ptr %4, i32 0, i32 0
  %10 = load i8, ptr %9, align 1
  %11 = call noundef zeroext i1 @_ZNK4Luau7CodeGen3X6411RegisterX64eqES2_(ptr noundef nonnull align 1 dereferenceable(1) %8, i8 %10)
  br i1 %11, label %12, label %17

12:                                               ; preds = %1
  call void @llvm.lifetime.start.p0(i64 8, ptr %5) #14
  %13 = getelementptr inbounds nuw %"struct.Luau::CodeGen::X64::IrLoweringX64", ptr %6, i32 0, i32 0
  %14 = load ptr, ptr %13, align 8, !tbaa !75
  %15 = call i64 @_ZN4Luau7CodeGen3X6418AssemblyBuilderX645u32x4Ejjjj(ptr noundef nonnull align 8 dereferenceable(252) %14, i32 noundef -1, i32 noundef -1, i32 noundef -1, i32 noundef 0)
  store i64 %15, ptr %5, align 4
  %16 = getelementptr inbounds nuw %"struct.Luau::CodeGen::X64::IrLoweringX64", ptr %6, i32 0, i32 9
  call void @llvm.memcpy.p0.p0.i64(ptr align 8 %16, ptr align 4 %5, i64 8, i1 false), !tbaa.struct !77
  call void @llvm.lifetime.end.p0(i64 8, ptr %5) #14
  br label %17

17:                                               ; preds = %12, %1
  %18 = getelementptr inbounds nuw %"struct.Luau::CodeGen::X64::IrLoweringX64", ptr %6, i32 0, i32 9
  call void @llvm.memcpy.p0.p0.i64(ptr align 4 %2, ptr align 8 %18, i64 8, i1 false), !tbaa.struct !77
  %19 = load i64, ptr %2, align 4
  ret i64 %19
}