; Function Attrs: mustprogress uwtable
define dso_local i64 @_ZN4Luau7CodeGen3X6413IrLoweringX6415vectorAndMaskOpEv(ptr noundef nonnull align 8 captures(none) dereferenceable(1440) %0) local_unnamed_addr #0 align 2 {
  %2 = getelementptr inbounds nuw i8, ptr %0, i64 1424
  %3 = getelementptr inbounds nuw i8, ptr %0, i64 1426
  %4 = load i8, ptr %3, align 2
  %5 = icmp eq i8 %4, -128
  br i1 %5, label %6, label %._crit_edge

._crit_edge:                                      ; preds = %1
  %.sroa.02.0.copyload.pre = load i64, ptr %2, align 8
  br label %9

6:                                                ; preds = %1
  %7 = load ptr, ptr %0, align 8, !tbaa !60
  %8 = tail call i64 @_ZN4Luau7CodeGen3X6418AssemblyBuilderX645u32x4Ejjjj(ptr noundef nonnull align 8 dereferenceable(252) %7, i32 noundef -1, i32 noundef -1, i32 noundef -1, i32 noundef 0)
  store i64 %8, ptr %2, align 8
  br label %9

9:                                                ; preds = %._crit_edge, %6
  %.sroa.02.0.copyload = phi i64 [ %.sroa.02.0.copyload.pre, %._crit_edge ], [ %8, %6 ]
  ret i64 %.sroa.02.0.copyload
}